; Function Attrs: nounwind uwtable
define ptr @Abc_NtkFindOrCreateNet(ptr noundef %0, ptr noundef %1) local_unnamed_addr #0 {
  %.not = icmp eq ptr %1, null
  br i1 %.not, label %13, label %3

3:                                                ; preds = %2
  %4 = getelementptr inbounds nuw i8, ptr %0, i64 24
  %5 = load ptr, ptr %4, align 8, !tbaa !45
  %6 = tail call i32 @Nm_ManFindIdByName(ptr noundef %5, ptr noundef nonnull %1, i32 noundef 6) #10
  %7 = icmp eq i32 %6, -1
  br i1 %7, label %Abc_NtkFindNet.exit.thread, label %Abc_NtkFindNet.exit

Abc_NtkFindNet.exit:                              ; preds = %3
  %8 = getelementptr i8, ptr %0, i64 32
  %.val.i = load ptr, ptr %8, align 8, !tbaa !31
  %9 = getelementptr i8, ptr %.val.i, i64 8
  %.val.val.i = load ptr, ptr %9, align 8, !tbaa !35
  %10 = sext i32 %6 to i64
  %11 = getelementptr inbounds ptr, ptr %.val.val.i, i64 %10
  %12 = load ptr, ptr %11, align 8, !tbaa !36
  %.not14 = icmp eq ptr %12, null
  br i1 %.not14, label %Abc_NtkFindNet.exit.thread, label %23

13:                                               ; preds = %2
  %14 = tail call noundef ptr @Abc_NtkCreateObj(ptr noundef %0, i32 noundef 6)
  br label %23

Abc_NtkFindNet.exit.thread:                       ; preds = %3, %Abc_NtkFindNet.exit
  %15 = tail call noundef ptr @Abc_NtkCreateObj(ptr noundef nonnull %0, i32 noundef 6)
  %16 = load ptr, ptr %4, align 8, !tbaa !45
  %17 = getelementptr inbounds nuw i8, ptr %15, i64 16
  %18 = load i32, ptr %17, align 8, !tbaa !27
  %19 = getelementptr inbounds nuw i8, ptr %15, i64 20
  %20 = load i32, ptr %19, align 4
  %21 = and i32 %20, 15
  %22 = tail call ptr @Nm_ManStoreIdName(ptr noundef %16, i32 noundef %18, i32 noundef %21, ptr noundef nonnull %1, ptr noundef null) #10
  br label %23

23:                                               ; preds = %13, %Abc_NtkFindNet.exit.thread, %Abc_NtkFindNet.exit
  %.0 = phi ptr [ %12, %Abc_NtkFindNet.exit ], [ %15, %Abc_NtkFindNet.exit.thread ], [ %14, %13 ]
  ret ptr %.0
}